target datalayout = "e-m:e-p270:32:32-p271:32:32-p272:64:64-i64:64-i128:128-f80:128-n8:16:32:64-S128"
target triple = "x86_64-pc-linux-gnu"

%struct.IDAMemRec = type { ptr, double, ptr, ptr, i32, double, double, ptr, i32, i32, ptr, ptr, i32, i32, i32, ptr, ptr, i32, i32, double, double, ptr, i32, i32, i32, i32, ptr, ptr, i32, ptr, ptr, ptr, i32, double, i32, i32, double, ptr, ptr, ptr, i32, ptr, ptr, i32, i32, i32, double, ptr, ptr, ptr, [6 x ptr], [6 x double], [6 x double], [6 x double], [6 x double], [6 x double], ptr, ptr, ptr, ptr, ptr, ptr, ptr, ptr, ptr, ptr, ptr, ptr, ptr, ptr, ptr, ptr, ptr, [6 x ptr], ptr, ptr, ptr, ptr, [6 x ptr], ptr, ptr, ptr, ptr, ptr, ptr, ptr, ptr, ptr, ptr, ptr, ptr, ptr, ptr, ptr, ptr, [6 x ptr], ptr, ptr, ptr, ptr, ptr, double, ptr, ptr, i32, i32, i32, i32, i32, i32, i32, i32, double, double, double, i32, double, i32, i32, i32, i32, i32, double, double, double, double, double, double, double, double, double, double, double, double, double, double, double, double, double, i32, i32, i32, i32, i64, double, double, double, double, double, double, double, double, double, i64, i64, i64, i64, i64, i64, i64, i64, i64, i64, i64, i64, i64, i64, i64, i64, i64, i64, i64, i64, i64, i64, i64, i64, i64, i64, double, i32, i32, i32, i32, i32, i32, i32, i32, i32, i32, i32, i32, i32, ptr, i32, ptr, i32, ptr, i32, ptr, ptr, ptr, ptr, ptr, ptr, i32, i32, ptr, ptr, ptr, ptr, ptr, ptr, ptr, double, i32, i32, ptr, i32, ptr, ptr, double, double, double, ptr, ptr, ptr, double, double, i32, i32, i64, ptr, i32, ptr, [5 x double], ptr, ptr, i32, ptr, i32 }

; Function Attrs: nounwind uwtable
define internal void @IDASensFreeVectors(ptr noundef %0) #0 {
  %2 = alloca ptr, align 8
  %3 = alloca i32, align 4
  %4 = alloca i32, align 4
  store ptr %0, ptr %2, align 8, !tbaa !8
  call void @llvm.lifetime.start.p0(i64 4, ptr %3) #10
  call void @llvm.lifetime.start.p0(i64 4, ptr %4) #10
  %5 = load ptr, ptr %2, align 8, !tbaa !8
  %6 = getelementptr inbounds nuw %struct.IDAMemRec, ptr %5, i32 0, i32 85
  %7 = load ptr, ptr %6, align 8, !tbaa !220
  %8 = load ptr, ptr %2, align 8, !tbaa !8
  %9 = getelementptr inbounds nuw %struct.IDAMemRec, ptr %8, i32 0, i32 24
  %10 = load i32, ptr %9, align 8, !tbaa !203
  call void @N_VDestroyVectorArray(ptr noundef %7, i32 noundef %10)
  %11 = load ptr, ptr %2, align 8, !tbaa !8
  %12 = getelementptr inbounds nuw %struct.IDAMemRec, ptr %11, i32 0, i32 84
  %13 = load ptr, ptr %12, align 8, !tbaa !219
  %14 = load ptr, ptr %2, align 8, !tbaa !8
  %15 = getelementptr inbounds nuw %struct.IDAMemRec, ptr %14, i32 0, i32 24
  %16 = load i32, ptr %15, align 8, !tbaa !203
  call void @N_VDestroyVectorArray(ptr noundef %13, i32 noundef %16)
  %17 = load ptr, ptr %2, align 8, !tbaa !8
  %18 = getelementptr inbounds nuw %struct.IDAMemRec, ptr %17, i32 0, i32 83
  %19 = load ptr, ptr %18, align 8, !tbaa !218
  %20 = load ptr, ptr %2, align 8, !tbaa !8
  %21 = getelementptr inbounds nuw %struct.IDAMemRec, ptr %20, i32 0, i32 24
  %22 = load i32, ptr %21, align 8, !tbaa !203
  call void @N_VDestroyVectorArray(ptr noundef %19, i32 noundef %22)
  %23 = load ptr, ptr %2, align 8, !tbaa !8
  %24 = getelementptr inbounds nuw %struct.IDAMemRec, ptr %23, i32 0, i32 82
  %25 = load ptr, ptr %24, align 8, !tbaa !217
  %26 = load ptr, ptr %2, align 8, !tbaa !8
  %27 = getelementptr inbounds nuw %struct.IDAMemRec, ptr %26, i32 0, i32 24
  %28 = load i32, ptr %27, align 8, !tbaa !203
  call void @N_VDestroyVectorArray(ptr noundef %25, i32 noundef %28)
  %29 = load ptr, ptr %2, align 8, !tbaa !8
  %30 = getelementptr inbounds nuw %struct.IDAMemRec, ptr %29, i32 0, i32 81
  %31 = load ptr, ptr %30, align 8, !tbaa !216
  %32 = load ptr, ptr %2, align 8, !tbaa !8
  %33 = getelementptr inbounds nuw %struct.IDAMemRec, ptr %32, i32 0, i32 24
  %34 = load i32, ptr %33, align 8, !tbaa !203
  call void @N_VDestroyVectorArray(ptr noundef %31, i32 noundef %34)
  %35 = load ptr, ptr %2, align 8, !tbaa !8
  %36 = getelementptr inbounds nuw %struct.IDAMemRec, ptr %35, i32 0, i32 80
  %37 = load ptr, ptr %36, align 8, !tbaa !215
  %38 = load ptr, ptr %2, align 8, !tbaa !8
  %39 = getelementptr inbounds nuw %struct.IDAMemRec, ptr %38, i32 0, i32 24
  %40 = load i32, ptr %39, align 8, !tbaa !203
  call void @N_VDestroyVectorArray(ptr noundef %37, i32 noundef %40)
  %41 = load ptr, ptr %2, align 8, !tbaa !8
  %42 = getelementptr inbounds nuw %struct.IDAMemRec, ptr %41, i32 0, i32 79
  %43 = load ptr, ptr %42, align 8, !tbaa !214
  %44 = load ptr, ptr %2, align 8, !tbaa !8
  %45 = getelementptr inbounds nuw %struct.IDAMemRec, ptr %44, i32 0, i32 24
  %46 = load i32, ptr %45, align 8, !tbaa !203
  call void @N_VDestroyVectorArray(ptr noundef %43, i32 noundef %46)
  %47 = load ptr, ptr %2, align 8, !tbaa !8
  %48 = getelementptr inbounds nuw %struct.IDAMemRec, ptr %47, i32 0, i32 88
  %49 = load ptr, ptr %48, align 8, !tbaa !213
  call void @N_VDestroy(ptr noundef %49)
  %50 = load ptr, ptr %2, align 8, !tbaa !8
  %51 = getelementptr inbounds nuw %struct.IDAMemRec, ptr %50, i32 0, i32 142
  %52 = load i32, ptr %51, align 4, !tbaa !50
  %53 = icmp sgt i32 %52, 4
  br i1 %53, label %54, label %58

54:                                               ; preds = %1
  %55 = load ptr, ptr %2, align 8, !tbaa !8
  %56 = getelementptr inbounds nuw %struct.IDAMemRec, ptr %55, i32 0, i32 142
  %57 = load i32, ptr %56, align 4, !tbaa !50
  br label %59

58:                                               ; preds = %1
  br label %59

59:                                               ; preds = %58, %54
  %60 = phi i32 [ %57, %54 ], [ 4, %58 ]
  store i32 %60, ptr %4, align 4, !tbaa !114
  store i32 0, ptr %3, align 4, !tbaa !114
  br label %61

61:                                               ; preds = %75, %59
  %62 = load i32, ptr %3, align 4, !tbaa !114
  %63 = load i32, ptr %4, align 4, !tbaa !114
  %64 = icmp sle i32 %62, %63
  br i1 %64, label %65, label %78

65:                                               ; preds = %61
  %66 = load ptr, ptr %2, align 8, !tbaa !8
  %67 = getelementptr inbounds nuw %struct.IDAMemRec, ptr %66, i32 0, i32 78
  %68 = load i32, ptr %3, align 4, !tbaa !114
  %69 = sext i32 %68 to i64
  %70 = getelementptr inbounds [6 x ptr], ptr %67, i64 0, i64 %69
  %71 = load ptr, ptr %70, align 8, !tbaa !125
  %72 = load ptr, ptr %2, align 8, !tbaa !8
  %73 = getelementptr inbounds nuw %struct.IDAMemRec, ptr %72, i32 0, i32 24
  %74 = load i32, ptr %73, align 8, !tbaa !203
  call void @N_VDestroyVectorArray(ptr noundef %71, i32 noundef %74)
  br label %75

75:                                               ; preds = %65
  %76 = load i32, ptr %3, align 4, !tbaa !114
  %77 = add nsw i32 %76, 1
  store i32 %77, ptr %3, align 4, !tbaa !114
  br label %61

78:                                               ; preds = %61
  %79 = load ptr, ptr %2, align 8, !tbaa !8
  %80 = getelementptr inbounds nuw %struct.IDAMemRec, ptr %79, i32 0, i32 30
  %81 = load ptr, ptr %80, align 8, !tbaa !70
  call void @free(ptr noundef %81) #10
  %82 = load ptr, ptr %2, align 8, !tbaa !8
  %83 = getelementptr inbounds nuw %struct.IDAMemRec, ptr %82, i32 0, i32 30
  store ptr null, ptr %83, align 8, !tbaa !70
  %84 = load ptr, ptr %2, align 8, !tbaa !8
  %85 = getelementptr inbounds nuw %struct.IDAMemRec, ptr %84, i32 0, i32 31
  %86 = load ptr, ptr %85, align 8, !tbaa !71
  call void @free(ptr noundef %86) #10
  %87 = load ptr, ptr %2, align 8, !tbaa !8
  %88 = getelementptr inbounds nuw %struct.IDAMemRec, ptr %87, i32 0, i32 31
  store ptr null, ptr %88, align 8, !tbaa !71
  %89 = load i32, ptr %4, align 4, !tbaa !114
  %90 = add nsw i32 %89, 3
  %91 = load ptr, ptr %2, align 8, !tbaa !8
  %92 = getelementptr inbounds nuw %struct.IDAMemRec, ptr %91, i32 0, i32 24
  %93 = load i32, ptr %92, align 8, !tbaa !203
  %94 = mul nsw i32 %90, %93
  %95 = add nsw i32 %94, 1
  %96 = sext i32 %95 to i64
  %97 = load ptr, ptr %2, align 8, !tbaa !8
  %98 = getelementptr inbounds nuw %struct.IDAMemRec, ptr %97, i32 0, i32 173
  %99 = load i64, ptr %98, align 8, !tbaa !132
  %100 = mul nsw i64 %96, %99
  %101 = load ptr, ptr %2, align 8, !tbaa !8
  %102 = getelementptr inbounds nuw %struct.IDAMemRec, ptr %101, i32 0, i32 24
  %103 = load i32, ptr %102, align 8, !tbaa !203
  %104 = sext i32 %103 to i64
  %105 = add nsw i64 %100, %104
  %106 = load ptr, ptr %2, align 8, !tbaa !8
  %107 = getelementptr inbounds nuw %struct.IDAMemRec, ptr %106, i32 0, i32 177
  %108 = load i64, ptr %107, align 8, !tbaa !85
  %109 = sub nsw i64 %108, %105
  store i64 %109, ptr %107, align 8, !tbaa !85
  %110 = load i32, ptr %4, align 4, !tbaa !114
  %111 = add nsw i32 %110, 3
  %112 = load ptr, ptr %2, align 8, !tbaa !8
  %113 = getelementptr inbounds nuw %struct.IDAMemRec, ptr %112, i32 0, i32 24
  %114 = load i32, ptr %113, align 8, !tbaa !203
  %115 = mul nsw i32 %111, %114
  %116 = add nsw i32 %115, 1
  %117 = sext i32 %116 to i64
  %118 = load ptr, ptr %2, align 8, !tbaa !8
  %119 = getelementptr inbounds nuw %struct.IDAMemRec, ptr %118, i32 0, i32 174
  %120 = load i64, ptr %119, align 8, !tbaa !133
  %121 = mul nsw i64 %117, %120
  %122 = load ptr, ptr %2, align 8, !tbaa !8
  %123 = getelementptr inbounds nuw %struct.IDAMemRec, ptr %122, i32 0, i32 24
  %124 = load i32, ptr %123, align 8, !tbaa !203
  %125 = sext i32 %124 to i64
  %126 = add nsw i64 %121, %125
  %127 = load ptr, ptr %2, align 8, !tbaa !8
  %128 = getelementptr inbounds nuw %struct.IDAMemRec, ptr %127, i32 0, i32 178
  %129 = load i64, ptr %128, align 8, !tbaa !86
  %130 = sub nsw i64 %129, %126
  store i64 %130, ptr %128, align 8, !tbaa !86
  %131 = load ptr, ptr %2, align 8, !tbaa !8
  %132 = getelementptr inbounds nuw %struct.IDAMemRec, ptr %131, i32 0, i32 187
  %133 = load i32, ptr %132, align 4, !tbaa !93
  %134 = icmp ne i32 %133, 0
  br i1 %134, label %135, label %168

135:                                              ; preds = %78
  %136 = load ptr, ptr %2, align 8, !tbaa !8
  %137 = getelementptr inbounds nuw %struct.IDAMemRec, ptr %136, i32 0, i32 38
  %138 = load ptr, ptr %137, align 8, !tbaa !221
  %139 = load ptr, ptr %2, align 8, !tbaa !8
  %140 = getelementptr inbounds nuw %struct.IDAMemRec, ptr %139, i32 0, i32 24
  %141 = load i32, ptr %140, align 8, !tbaa !203
  call void @N_VDestroyVectorArray(ptr noundef %138, i32 noundef %141)
  %142 = load ptr, ptr %2, align 8, !tbaa !8
  %143 = getelementptr inbounds nuw %struct.IDAMemRec, ptr %142, i32 0, i32 24
  %144 = load i32, ptr %143, align 8, !tbaa !203
  %145 = sext i32 %144 to i64
  %146 = load ptr, ptr %2, align 8, !tbaa !8
  %147 = getelementptr inbounds nuw %struct.IDAMemRec, ptr %146, i32 0, i32 173
  %148 = load i64, ptr %147, align 8, !tbaa !132
  %149 = mul nsw i64 %145, %148
  %150 = load ptr, ptr %2, align 8, !tbaa !8
  %151 = getelementptr inbounds nuw %struct.IDAMemRec, ptr %150, i32 0, i32 177
  %152 = load i64, ptr %151, align 8, !tbaa !85
  %153 = sub nsw i64 %152, %149
  store i64 %153, ptr %151, align 8, !tbaa !85
  %154 = load ptr, ptr %2, align 8, !tbaa !8
  %155 = getelementptr inbounds nuw %struct.IDAMemRec, ptr %154, i32 0, i32 24
  %156 = load i32, ptr %155, align 8, !tbaa !203
  %157 = sext i32 %156 to i64
  %158 = load ptr, ptr %2, align 8, !tbaa !8
  %159 = getelementptr inbounds nuw %struct.IDAMemRec, ptr %158, i32 0, i32 174
  %160 = load i64, ptr %159, align 8, !tbaa !133
  %161 = mul nsw i64 %157, %160
  %162 = load ptr, ptr %2, align 8, !tbaa !8
  %163 = getelementptr inbounds nuw %struct.IDAMemRec, ptr %162, i32 0, i32 178
  %164 = load i64, ptr %163, align 8, !tbaa !86
  %165 = sub nsw i64 %164, %161
  store i64 %165, ptr %163, align 8, !tbaa !86
  %166 = load ptr, ptr %2, align 8, !tbaa !8
  %167 = getelementptr inbounds nuw %struct.IDAMemRec, ptr %166, i32 0, i32 187
  store i32 0, ptr %167, align 4, !tbaa !93
  br label %168

168:                                              ; preds = %135, %78
  %169 = load ptr, ptr %2, align 8, !tbaa !8
  %170 = getelementptr inbounds nuw %struct.IDAMemRec, ptr %169, i32 0, i32 188
  %171 = load i32, ptr %170, align 8, !tbaa !94
  %172 = icmp ne i32 %171, 0
  br i1 %172, label %173, label %189

173:                                              ; preds = %168
  %174 = load ptr, ptr %2, align 8, !tbaa !8
  %175 = getelementptr inbounds nuw %struct.IDAMemRec, ptr %174, i32 0, i32 37
  %176 = load ptr, ptr %175, align 8, !tbaa !222
  call void @free(ptr noundef %176) #10
  %177 = load ptr, ptr %2, align 8, !tbaa !8
  %178 = getelementptr inbounds nuw %struct.IDAMemRec, ptr %177, i32 0, i32 37
  store ptr null, ptr %178, align 8, !tbaa !222
  %179 = load ptr, ptr %2, align 8, !tbaa !8
  %180 = getelementptr inbounds nuw %struct.IDAMemRec, ptr %179, i32 0, i32 24
  %181 = load i32, ptr %180, align 8, !tbaa !203
  %182 = sext i32 %181 to i64
  %183 = load ptr, ptr %2, align 8, !tbaa !8
  %184 = getelementptr inbounds nuw %struct.IDAMemRec, ptr %183, i32 0, i32 177
  %185 = load i64, ptr %184, align 8, !tbaa !85
  %186 = sub nsw i64 %185, %182
  store i64 %186, ptr %184, align 8, !tbaa !85
  %187 = load ptr, ptr %2, align 8, !tbaa !8
  %188 = getelementptr inbounds nuw %struct.IDAMemRec, ptr %187, i32 0, i32 188
  store i32 0, ptr %188, align 8, !tbaa !94
  br label %189

189:                                              ; preds = %173, %168
  call void @llvm.lifetime.end.p0(i64 4, ptr %4) #10
  call void @llvm.lifetime.end.p0(i64 4, ptr %3) #10
  ret void
}