; Function Attrs: nounwind uwtable
define internal fastcc void @IDASensFreeVectors(ptr noundef nonnull captures(none) %0) unnamed_addr #0 {
  %2 = getelementptr inbounds nuw i8, ptr %0, i64 944
  %3 = load ptr, ptr %2, align 8, !tbaa !177
  %4 = getelementptr inbounds nuw i8, ptr %0, i64 160
  %5 = load i32, ptr %4, align 8, !tbaa !167
  tail call void @N_VDestroyVectorArray(ptr noundef %3, i32 noundef %5) #14
  %6 = getelementptr inbounds nuw i8, ptr %0, i64 936
  %7 = load ptr, ptr %6, align 8, !tbaa !176
  %8 = load i32, ptr %4, align 8, !tbaa !167
  tail call void @N_VDestroyVectorArray(ptr noundef %7, i32 noundef %8) #14
  %9 = getelementptr inbounds nuw i8, ptr %0, i64 928
  %10 = load ptr, ptr %9, align 8, !tbaa !175
  %11 = load i32, ptr %4, align 8, !tbaa !167
  tail call void @N_VDestroyVectorArray(ptr noundef %10, i32 noundef %11) #14
  %12 = getelementptr inbounds nuw i8, ptr %0, i64 920
  %13 = load ptr, ptr %12, align 8, !tbaa !174
  %14 = load i32, ptr %4, align 8, !tbaa !167
  tail call void @N_VDestroyVectorArray(ptr noundef %13, i32 noundef %14) #14
  %15 = getelementptr inbounds nuw i8, ptr %0, i64 912
  %16 = load ptr, ptr %15, align 8, !tbaa !173
  %17 = load i32, ptr %4, align 8, !tbaa !167
  tail call void @N_VDestroyVectorArray(ptr noundef %16, i32 noundef %17) #14
  %18 = getelementptr inbounds nuw i8, ptr %0, i64 904
  %19 = load ptr, ptr %18, align 8, !tbaa !172
  %20 = load i32, ptr %4, align 8, !tbaa !167
  tail call void @N_VDestroyVectorArray(ptr noundef %19, i32 noundef %20) #14
  %21 = getelementptr inbounds nuw i8, ptr %0, i64 896
  %22 = load ptr, ptr %21, align 8, !tbaa !171
  %23 = load i32, ptr %4, align 8, !tbaa !167
  tail call void @N_VDestroyVectorArray(ptr noundef %22, i32 noundef %23) #14
  %24 = getelementptr inbounds nuw i8, ptr %0, i64 968
  %25 = load ptr, ptr %24, align 8, !tbaa !170
  tail call void @N_VDestroy(ptr noundef %25) #14
  %26 = getelementptr inbounds nuw i8, ptr %0, i64 1380
  %27 = load i32, ptr %26, align 4, !tbaa !33
  %spec.select = tail call i32 @llvm.smax.i32(i32 %27, i32 4)
  %28 = getelementptr inbounds nuw i8, ptr %0, i64 848
  %29 = add nuw i32 %spec.select, 1
  %wide.trip.count = zext i32 %29 to i64
  br label %30

30:                                               ; preds = %1, %30
  %indvars.iv = phi i64 [ 0, %1 ], [ %indvars.iv.next, %30 ]
  %31 = getelementptr inbounds nuw [6 x ptr], ptr %28, i64 0, i64 %indvars.iv
  %32 = load ptr, ptr %31, align 8, !tbaa !178
  %33 = load i32, ptr %4, align 8, !tbaa !167
  tail call void @N_VDestroyVectorArray(ptr noundef %32, i32 noundef %33) #14
  %indvars.iv.next = add nuw nsw i64 %indvars.iv, 1
  %exitcond.not = icmp eq i64 %indvars.iv.next, %wide.trip.count
  br i1 %exitcond.not, label %34, label %30

34:                                               ; preds = %30
  %35 = getelementptr inbounds nuw i8, ptr %0, i64 200
  %36 = load ptr, ptr %35, align 8, !tbaa !86
  tail call void @free(ptr noundef %36) #14
  store ptr null, ptr %35, align 8, !tbaa !86
  %37 = getelementptr inbounds nuw i8, ptr %0, i64 208
  %38 = load ptr, ptr %37, align 8, !tbaa !88
  tail call void @free(ptr noundef %38) #14
  store ptr null, ptr %37, align 8, !tbaa !88
  %39 = add nuw nsw i32 %spec.select, 3
  %40 = load i32, ptr %4, align 8, !tbaa !167
  %41 = mul nsw i32 %40, %39
  %42 = add nsw i32 %41, 1
  %43 = sext i32 %42 to i64
  %44 = getelementptr inbounds nuw i8, ptr %0, i64 1624
  %45 = load i64, ptr %44, align 8, !tbaa !112
  %46 = mul nsw i64 %45, %43
  %47 = sext i32 %40 to i64
  %48 = getelementptr inbounds nuw i8, ptr %0, i64 1656
  %49 = load i64, ptr %48, align 8, !tbaa !64
  %50 = add i64 %46, %47
  %51 = sub i64 %49, %50
  store i64 %51, ptr %48, align 8, !tbaa !64
  %52 = getelementptr inbounds nuw i8, ptr %0, i64 1632
  %53 = load i64, ptr %52, align 8, !tbaa !113
  %54 = mul nsw i64 %53, %43
  %55 = getelementptr inbounds nuw i8, ptr %0, i64 1664
  %56 = load i64, ptr %55, align 8, !tbaa !65
  %57 = add i64 %54, %47
  %58 = sub i64 %56, %57
  store i64 %58, ptr %55, align 8, !tbaa !65
  %59 = getelementptr inbounds nuw i8, ptr %0, i64 1708
  %60 = load i32, ptr %59, align 4, !tbaa !186
  %.not54 = icmp eq i32 %60, 0
  br i1 %.not54, label %74, label %61

61:                                               ; preds = %34
  %62 = getelementptr inbounds nuw i8, ptr %0, i64 256
  %63 = load ptr, ptr %62, align 8, !tbaa !187
  tail call void @N_VDestroyVectorArray(ptr noundef %63, i32 noundef %40) #14
  %64 = load i32, ptr %4, align 8, !tbaa !167
  %65 = sext i32 %64 to i64
  %66 = load i64, ptr %44, align 8, !tbaa !112
  %67 = mul nsw i64 %66, %65
  %68 = load i64, ptr %48, align 8, !tbaa !64
  %69 = sub nsw i64 %68, %67
  store i64 %69, ptr %48, align 8, !tbaa !64
  %70 = load i64, ptr %52, align 8, !tbaa !113
  %71 = mul nsw i64 %70, %65
  %72 = load i64, ptr %55, align 8, !tbaa !65
  %73 = sub nsw i64 %72, %71
  store i64 %73, ptr %55, align 8, !tbaa !65
  store i32 0, ptr %59, align 4, !tbaa !186
  br label %74

74:                                               ; preds = %61, %34
  %75 = getelementptr inbounds nuw i8, ptr %0, i64 1712
  %76 = load i32, ptr %75, align 8, !tbaa !188
  %.not55 = icmp eq i32 %76, 0
  br i1 %.not55, label %84, label %77

77:                                               ; preds = %74
  %78 = getelementptr inbounds nuw i8, ptr %0, i64 248
  %79 = load ptr, ptr %78, align 8, !tbaa !189
  tail call void @free(ptr noundef %79) #14
  store ptr null, ptr %78, align 8, !tbaa !189
  %80 = load i32, ptr %4, align 8, !tbaa !167
  %81 = sext i32 %80 to i64
  %82 = load i64, ptr %48, align 8, !tbaa !64
  %83 = sub nsw i64 %82, %81
  store i64 %83, ptr %48, align 8, !tbaa !64
  store i32 0, ptr %75, align 8, !tbaa !188
  br label %84

84:                                               ; preds = %77, %74
  ret void
}